TN:
SF:/home/projectx/accademyprojects/cpp/CppAcademy/Src/Cpp_Component_Test.cpp
FN:8,_ZN17ExampleTestModule13set_name_test11test_methodEv
FNDA:1,_ZN17ExampleTestModule13set_name_test11test_methodEv
FN:8,_ZN17ExampleTestModuleL21set_name_test_invokerEv
FNDA:1,_ZN17ExampleTestModuleL21set_name_test_invokerEv
FN:16,_ZN17ExampleTestModule11set_id_test11test_methodEv
FNDA:1,_ZN17ExampleTestModule11set_id_test11test_methodEv
FN:16,_ZN17ExampleTestModuleL19set_id_test_invokerEv
FNDA:1,_ZN17ExampleTestModuleL19set_id_test_invokerEv
FN:24,_ZN17ExampleTestModule19singletone_database11test_methodEv
FNDA:1,_ZN17ExampleTestModule19singletone_database11test_methodEv
FN:24,_ZN17ExampleTestModuleL27singletone_database_invokerEv
FNDA:1,_ZN17ExampleTestModuleL27singletone_database_invokerEv
FN:32,_ZN17ExampleTestModule22add_record_to_database11test_methodEv
FNDA:1,_ZN17ExampleTestModule22add_record_to_database11test_methodEv
FN:32,_ZN17ExampleTestModuleL30add_record_to_database_invokerEv
FNDA:1,_ZN17ExampleTestModuleL30add_record_to_database_invokerEv
DA:8,1
DA:10,3
DA:11,3
DA:13,1
DA:14,1
DA:8,1
DA:16,1
DA:18,3
DA:19,1
DA:21,1
DA:22,1
DA:16,1
DA:24,1
DA:26,1
DA:27,1
DA:29,1
DA:30,1
DA:24,1
DA:32,1
DA:34,1
DA:35,1
DA:36,1
DA:38,1
DA:39,1
DA:40,1
DA:32,1
end_of_record
SF:/home/projectx/accademyprojects/cpp/CppAcademy/Src/Cpp_Component.hpp
end_of_record
TN:
SF:/home/projectx/accademyprojects/cpp/CppAcademy/Src/Cpp_Component.cpp
FN:6,_ZN6RecordC2EiRKNSt7__cxx1112basic_stringIcSt11char_traitsIcESaIcEEE
FNDA:3,_ZN6RecordC2EiRKNSt7__cxx1112basic_stringIcSt11char_traitsIcESaIcEEE
FN:8,_ZN8Database14createInstanceEv
FNDA:3,_ZN8Database14createInstanceEv
FN:14,_ZN8Database9addRecordEiRKNSt7__cxx1112basic_stringIcSt11char_traitsIcESaIcEEE
FNDA:1,_ZN8Database9addRecordEiRKNSt7__cxx1112basic_stringIcSt11char_traitsIcESaIcEEE
FN:19,_ZN8Database12removeRecordEi
FNDA:0,_ZN8Database12removeRecordEi
FN:21,_ZZN8Database12removeRecordEiENKUlRK6RecordE_clES2_
FNDA:0,_ZZN8Database12removeRecordEiENKUlRK6RecordE_clES2_
FN:24,_ZN8Database16searchRecordByIdEi
FNDA:0,_ZN8Database16searchRecordByIdEi
FN:27,_ZZN8Database16searchRecordByIdEiENKUlRK6RecordE_clES2_
FNDA:0,_ZZN8Database16searchRecordByIdEiENKUlRK6RecordE_clES2_
FN:34,_ZN8Database15printAllRecordsEv
FNDA:0,_ZN8Database15printAllRecordsEv
FN:41,_ZN8Database18getNumberOfRecordsEv
FNDA:2,_ZN8Database18getNumberOfRecordsEv
DA:6,3
DA:8,3
DA:10,3
DA:11,3
DA:14,1
DA:16,1
DA:17,1
DA:19,0
DA:21,0
DA:22,0
DA:24,0
DA:27,0
DA:28,0
DA:29,0
DA:31,0
DA:34,0
DA:36,0
DA:37,0
DA:39,0
DA:41,2
DA:43,2
end_of_record
SF:/home/projectx/accademyprojects/cpp/CppAcademy/Src/Cpp_Component.hpp
FN:25,_ZN8DatabaseC2Ev
FNDA:1,_ZN8DatabaseC2Ev
FN:26,_ZN8DatabaseD2Ev
FNDA:1,_ZN8DatabaseD2Ev
DA:25,1
DA:26,1
end_of_record
